; Function Attrs: mustprogress uwtable
define internal fastcc noundef i64 @_ZN7mitsuba3xml6detailL5stollERKNSt3__112basic_stringIcNS2_11char_traitsIcEENS2_9allocatorIcEEEE(ptr noundef nonnull align 8 dereferenceable(24) %0) unnamed_addr #1 personality ptr @__gxx_personality_v0 {
  %2 = alloca i64, align 8
  %3 = alloca %"class.std::__1::basic_string", align 8
  store i64 0, ptr %2, align 8
  %4 = call noundef i64 @_ZNSt3__15stollERKNS_12basic_stringIcNS_11char_traitsIcEENS_9allocatorIcEEEEPmi(ptr noundef nonnull align 8 dereferenceable(24) %0, ptr noundef nonnull %2, i32 noundef 10)
  %5 = load i64, ptr %2, align 8
  %6 = load i8, ptr %0, align 8
  %7 = and i8 %6, 1
  %.not.i = icmp eq i8 %7, 0
  %8 = getelementptr inbounds i8, ptr %0, i64 8
  %9 = load i64, ptr %8, align 8
  %10 = lshr i8 %6, 1
  %11 = zext nneg i8 %10 to i64
  %12 = select i1 %.not.i, i64 %11, i64 %9
  %13 = icmp ult i64 %5, %12
  br i1 %13, label %_ZNKSt3__112basic_stringIcNS_11char_traitsIcEENS_9allocatorIcEEEixB8ne190000Em.exit.lr.ph, label %._crit_edge

_ZNKSt3__112basic_stringIcNS_11char_traitsIcEENS_9allocatorIcEEEixB8ne190000Em.exit.lr.ph: ; preds = %1
  %14 = getelementptr inbounds i8, ptr %0, i64 16
  %15 = load ptr, ptr %14, align 8
  %16 = getelementptr inbounds i8, ptr %0, i64 1
  %17 = select i1 %.not.i, ptr %16, ptr %15
  br label %_ZNKSt3__112basic_stringIcNS_11char_traitsIcEENS_9allocatorIcEEEixB8ne190000Em.exit

18:                                               ; preds = %_ZNKSt3__112basic_stringIcNS_11char_traitsIcEENS_9allocatorIcEEEixB8ne190000Em.exit
  %19 = add i64 %.09, 1
  %exitcond.not = icmp eq i64 %19, %12
  br i1 %exitcond.not, label %._crit_edge, label %_ZNKSt3__112basic_stringIcNS_11char_traitsIcEENS_9allocatorIcEEEixB8ne190000Em.exit, !llvm.loop !284

_ZNKSt3__112basic_stringIcNS_11char_traitsIcEENS_9allocatorIcEEEixB8ne190000Em.exit: ; preds = %_ZNKSt3__112basic_stringIcNS_11char_traitsIcEENS_9allocatorIcEEEixB8ne190000Em.exit.lr.ph, %18
  %.09 = phi i64 [ %5, %_ZNKSt3__112basic_stringIcNS_11char_traitsIcEENS_9allocatorIcEEEixB8ne190000Em.exit.lr.ph ], [ %19, %18 ]
  %.0.i = getelementptr inbounds i8, ptr %17, i64 %.09
  %20 = load i8, ptr %.0.i, align 1
  %21 = sext i8 %20 to i32
  %22 = call i32 @isspace(i32 noundef %21) #32
  %.not = icmp eq i32 %22, 0
  br i1 %.not, label %23, label %18

23:                                               ; preds = %_ZNKSt3__112basic_stringIcNS_11char_traitsIcEENS_9allocatorIcEEEixB8ne190000Em.exit
  %24 = load ptr, ptr @_ZN7mitsuba7m_classE, align 8
  call void @_ZN10tinyformat6formatIJNSt3__112basic_stringIcNS1_11char_traitsIcEENS1_9allocatorIcEEEEEEES7_PKcDpRKT_(ptr dead_on_unwind nonnull writable sret(%"class.std::__1::basic_string") align 8 %3, ptr noundef nonnull @.str.149, ptr noundef nonnull align 8 dereferenceable(24) %0)
  invoke void @_ZN7mitsuba6detail5ThrowENS_8LogLevelEPKNS_5ClassEPKciRKNSt3__112basic_stringIcNS7_11char_traitsIcEENS7_9allocatorIcEEEE(i32 noundef 400, ptr noundef %24, ptr noundef nonnull @.str.41, i32 noundef 64, ptr noundef nonnull align 8 dereferenceable(24) %3) #30
          to label %25 unwind label %26

25:                                               ; preds = %23
  unreachable

26:                                               ; preds = %23
  %27 = landingpad { ptr, i32 }
          cleanup
  call void @_ZNSt3__112basic_stringIcNS_11char_traitsIcEENS_9allocatorIcEEED1Ev(ptr noundef nonnull align 8 dereferenceable(24) %3) #28
  resume { ptr, i32 } %27

._crit_edge:                                      ; preds = %18, %1
  ret i64 %4
}